; ModuleID = 'source-C-CXX/27/279.c'
source_filename = "source-C-CXX/27/279.c"
target datalayout = "e-m:e-p270:32:32-p271:32:32-p272:64:64-i64:64-f80:128-n8:16:32:64-S128"
target triple = "x86_64-pc-linux-gnu"

@.str = private unnamed_addr constant [3 x i8] c"%s\00", align 1
@.str.1 = private unnamed_addr constant [3 x i8] c"%d\00", align 1
@.str.2 = private unnamed_addr constant [4 x i8] c",%d\00", align 1

; Function Attrs: nofree nounwind sspstrong uwtable
define dso_local void @main() local_unnamed_addr #0 {
  %1 = alloca [100 x i8], align 16
  %2 = getelementptr inbounds [100 x i8], [100 x i8]* %1, i64 0, i64 0
  call void @llvm.lifetime.start.p0i8(i64 100, i8* nonnull %2) #3
  %3 = call i32 (i8*, ...) @__isoc99_scanf(i8* getelementptr inbounds ([3 x i8], [3 x i8]* @.str, i64 0, i64 0), i8* nonnull %2)
  %4 = icmp eq i32 %3, -1
  br i1 %4, label %35, label %8

5:                                                ; preds = %18, %30
  %6 = load i8, i8* %2, align 16, !tbaa !5
  %7 = icmp eq i8 %6, 0
  br i1 %7, label %30, label %23

8:                                                ; preds = %0
  %9 = load i8, i8* %2, align 16, !tbaa !5
  %10 = icmp eq i8 %9, 0
  br i1 %10, label %18, label %11

11:                                               ; preds = %8, %11
  %12 = phi i8* [ %14, %11 ], [ %2, %8 ]
  %13 = phi i32 [ %15, %11 ], [ 0, %8 ]
  %14 = getelementptr inbounds i8, i8* %12, i64 1
  %15 = add nuw nsw i32 %13, 1
  %16 = load i8, i8* %14, align 1, !tbaa !5
  %17 = icmp eq i8 %16, 0
  br i1 %17, label %18, label %11, !llvm.loop !8

18:                                               ; preds = %11, %8
  %19 = phi i32 [ 0, %8 ], [ %15, %11 ]
  %20 = call i32 (i8*, ...) @printf(i8* nonnull dereferenceable(1) getelementptr inbounds ([3 x i8], [3 x i8]* @.str.1, i64 0, i64 0), i32 %19)
  %21 = call i32 (i8*, ...) @__isoc99_scanf(i8* getelementptr inbounds ([3 x i8], [3 x i8]* @.str, i64 0, i64 0), i8* nonnull %2)
  %22 = icmp eq i32 %21, -1
  br i1 %22, label %35, label %5, !llvm.loop !10

23:                                               ; preds = %5, %23
  %24 = phi i8* [ %26, %23 ], [ %2, %5 ]
  %25 = phi i32 [ %27, %23 ], [ 0, %5 ]
  %26 = getelementptr inbounds i8, i8* %24, i64 1
  %27 = add nuw nsw i32 %25, 1
  %28 = load i8, i8* %26, align 1, !tbaa !5
  %29 = icmp eq i8 %28, 0
  br i1 %29, label %30, label %23, !llvm.loop !11

30:                                               ; preds = %23, %5
  %31 = phi i32 [ 0, %5 ], [ %27, %23 ]
  %32 = call i32 (i8*, ...) @printf(i8* nonnull dereferenceable(1) getelementptr inbounds ([4 x i8], [4 x i8]* @.str.2, i64 0, i64 0), i32 %31)
  %33 = call i32 (i8*, ...) @__isoc99_scanf(i8* getelementptr inbounds ([3 x i8], [3 x i8]* @.str, i64 0, i64 0), i8* nonnull %2)
  %34 = icmp eq i32 %33, -1
  br i1 %34, label %35, label %5, !llvm.loop !10

35:                                               ; preds = %30, %18, %0
  call void @llvm.lifetime.end.p0i8(i64 100, i8* nonnull %2) #3
  ret void
}

; Function Attrs: argmemonly mustprogress nofree nosync nounwind willreturn
declare void @llvm.lifetime.start.p0i8(i64 immarg, i8* nocapture) #1

; Function Attrs: nofree nounwind
declare noundef i32 @__isoc99_scanf(i8* nocapture noundef readonly, ...) local_unnamed_addr #2

; Function Attrs: nofree nounwind
declare noundef i32 @printf(i8* nocapture noundef readonly, ...) local_unnamed_addr #2

; Function Attrs: argmemonly mustprogress nofree nosync nounwind willreturn
declare void @llvm.lifetime.end.p0i8(i64 immarg, i8* nocapture) #1


!llvm.module.flags = !{!0, !1, !2, !3}
!llvm.ident = !{!4}

!0 = !{i32 1, !"wchar_size", i32 4}
!1 = !{i32 7, !"PIC Level", i32 2}
!2 = !{i32 7, !"PIE Level", i32 2}
!3 = !{i32 7, !"uwtable", i32 1}
!4 = !{!"clang version 13.0.0"}
!5 = !{!6, !6, i64 0}
!6 = !{!"omnipotent char", !7, i64 0}
!7 = !{!"Simple C/C++ TBAA"}
!8 = distinct !{!8, !9}
!9 = !{!"llvm.loop.mustprogress"}
!10 = distinct !{!10, !9}
!11 = distinct !{!11, !9}
